target datalayout = "e-m:e-p270:32:32-p271:32:32-p272:64:64-i64:64-i128:128-f80:128-n8:16:32:64-S128"
target triple = "x86_64-unknown-linux-gnu"

%"class.QuantLib::Date" = type { i64 }
%"class.boost::detail::shared_count" = type { ptr }
%"class.QuantLib::Event.base" = type { ptr }
%"class.QuantLib::Currency" = type { %"class.boost::shared_ptr.10" }
%"class.boost::shared_ptr.10" = type { ptr, %"class.boost::detail::shared_count" }
%"class.QuantLib::DefaultType" = type { ptr, i32, i32 }
%"class.QuantLib::DefaultEvent::DefaultSettlement" = type { %"class.QuantLib::Event.base", %"class.QuantLib::Date", %"class.std::map", %"class.QuantLib::Observable" }
%"class.std::map" = type { %"class.std::_Rb_tree.11" }
%"class.std::_Rb_tree.11" = type { %"struct.std::_Rb_tree<QuantLib::Seniority, std::pair<const QuantLib::Seniority, double>, std::_Select1st<std::pair<const QuantLib::Seniority, double>>, std::less<QuantLib::Seniority>>::_Rb_tree_impl" }
%"struct.std::_Rb_tree<QuantLib::Seniority, std::pair<const QuantLib::Seniority, double>, std::_Select1st<std::pair<const QuantLib::Seniority, double>>, std::less<QuantLib::Seniority>>::_Rb_tree_impl" = type { [8 x i8], %"struct.std::_Rb_tree_header" }
%"struct.std::_Rb_tree_header" = type { %"struct.std::_Rb_tree_node_base", i64 }
%"struct.std::_Rb_tree_node_base" = type { i32, ptr, ptr, ptr }
%"class.QuantLib::Observable" = type { ptr, %"class.std::set.0" }
%"class.std::set.0" = type { %"class.std::_Rb_tree.1" }
%"class.std::_Rb_tree.1" = type { %"struct.std::_Rb_tree<QuantLib::Observer *, QuantLib::Observer *, std::_Identity<QuantLib::Observer *>, std::less<QuantLib::Observer *>>::_Rb_tree_impl" }
%"struct.std::_Rb_tree<QuantLib::Observer *, QuantLib::Observer *, std::_Identity<QuantLib::Observer *>, std::less<QuantLib::Observer *>>::_Rb_tree_impl" = type { [8 x i8], %"struct.std::_Rb_tree_header" }
%"class.QuantLib::FailureToPayEvent" = type { %"class.QuantLib::DefaultEvent.base", double, %"class.QuantLib::Observable" }
%"class.QuantLib::DefaultEvent.base" = type { %"class.QuantLib::Event.base", %"class.QuantLib::Currency", %"class.QuantLib::Date", %"class.QuantLib::DefaultType", i32, %"class.QuantLib::DefaultEvent::DefaultSettlement" }
%"class.boost::detail::sp_counted_base" = type { ptr, i32, i32 }

@_ZTVN8QuantLib10ObservableE = linkonce_odr unnamed_addr constant { [4 x ptr] } { [4 x ptr] [ptr null, ptr @_ZTIN8QuantLib10ObservableE, ptr @_ZN8QuantLib10ObservableD2Ev, ptr @_ZN8QuantLib10ObservableD0Ev] }, comdat, align 8

; Function Attrs: mustprogress nounwind uwtable
define linkonce_odr void @_ZNSt15_Rb_tree_header8_M_resetEv(ptr noundef nonnull align 8 dereferenceable(40) %this) #4 comdat align 2 {
entry:
  %this.addr = alloca ptr, align 8
  store ptr %this, ptr %this.addr, align 8, !tbaa !3
  %this1 = load ptr, ptr %this.addr, align 8
  %_M_header = getelementptr inbounds nuw %"struct.std::_Rb_tree_header", ptr %this1, i32 0, i32 0
  %_M_parent = getelementptr inbounds nuw %"struct.std::_Rb_tree_node_base", ptr %_M_header, i32 0, i32 1
  store ptr null, ptr %_M_parent, align 8, !tbaa !64
  %_M_header2 = getelementptr inbounds nuw %"struct.std::_Rb_tree_header", ptr %this1, i32 0, i32 0
  %_M_header3 = getelementptr inbounds nuw %"struct.std::_Rb_tree_header", ptr %this1, i32 0, i32 0
  %_M_left = getelementptr inbounds nuw %"struct.std::_Rb_tree_node_base", ptr %_M_header3, i32 0, i32 2
  store ptr %_M_header2, ptr %_M_left, align 8, !tbaa !65
  %_M_header4 = getelementptr inbounds nuw %"struct.std::_Rb_tree_header", ptr %this1, i32 0, i32 0
  %_M_header5 = getelementptr inbounds nuw %"struct.std::_Rb_tree_header", ptr %this1, i32 0, i32 0
  %_M_right = getelementptr inbounds nuw %"struct.std::_Rb_tree_node_base", ptr %_M_header5, i32 0, i32 3
  store ptr %_M_header4, ptr %_M_right, align 8, !tbaa !66
  %_M_node_count = getelementptr inbounds nuw %"struct.std::_Rb_tree_header", ptr %this1, i32 0, i32 1
  store i64 0, ptr %_M_node_count, align 8, !tbaa !67
  ret void
}

; Function Attrs: mustprogress nounwind uwtable
define linkonce_odr void @_ZNSt15__new_allocatorISt13_Rb_tree_nodeIPN8QuantLib8ObserverEEEC2Ev(ptr noundef nonnull align 1 dereferenceable(1) %this) unnamed_addr #4 comdat align 2 {
entry:
  %this.addr = alloca ptr, align 8
  store ptr %this, ptr %this.addr, align 8, !tbaa !3
  ret void
}

; Function Attrs: inlinehint mustprogress nounwind uwtable
define linkonce_odr void @_ZN5boost6detail16atomic_incrementEPj(ptr noundef %pw) #8 comdat {
entry:
  %pw.addr = alloca ptr, align 8
  %.atomictmp = alloca i32, align 4
  %atomic-temp = alloca i32, align 4
  store ptr %pw, ptr %pw.addr, align 8, !tbaa !3
  %0 = load ptr, ptr %pw.addr, align 8, !tbaa !3
  store i32 1, ptr %.atomictmp, align 4, !tbaa !72
  %1 = load i32, ptr %.atomictmp, align 4
  %2 = atomicrmw add ptr %0, i32 %1 monotonic, align 4
  store i32 %2, ptr %atomic-temp, align 4
  ret void
}

; Function Attrs: mustprogress nounwind uwtable
define linkonce_odr void @_ZNSt15_Rb_tree_headerC2Ev(ptr noundef nonnull align 8 dereferenceable(40) %this) unnamed_addr #4 comdat align 2 personality ptr @__gxx_personality_v0 {
entry:
  %this.addr = alloca ptr, align 8
  store ptr %this, ptr %this.addr, align 8, !tbaa !3
  %this1 = load ptr, ptr %this.addr, align 8
  %_M_header2 = getelementptr inbounds nuw %"struct.std::_Rb_tree_header", ptr %this1, i32 0, i32 0
  %_M_color = getelementptr inbounds nuw %"struct.std::_Rb_tree_node_base", ptr %_M_header2, i32 0, i32 0
  store i32 0, ptr %_M_color, align 8, !tbaa !63
  invoke void @_ZNSt15_Rb_tree_header8_M_resetEv(ptr noundef nonnull align 8 dereferenceable(40) %this1)
          to label %invoke.cont unwind label %terminate.lpad

invoke.cont:                                      ; preds = %entry
  ret void

terminate.lpad:                                   ; preds = %entry
  %0 = landingpad { ptr, i32 }
          catch ptr null
  %1 = extractvalue { ptr, i32 } %0, 0
  call void @__clang_call_terminate(ptr %1) #21
  unreachable
}

; Function Attrs: mustprogress nounwind uwtable
define linkonce_odr void @_ZNSt20_Rb_tree_key_compareISt4lessIPN8QuantLib8ObserverEEEC2Ev(ptr noundef nonnull align 1 dereferenceable(1) %this) unnamed_addr #4 comdat align 2 {
entry:
  %this.addr = alloca ptr, align 8
  store ptr %this, ptr %this.addr, align 8, !tbaa !3
  ret void
}

; Function Attrs: mustprogress nounwind uwtable
define linkonce_odr void @_ZNSaISt13_Rb_tree_nodeIPN8QuantLib8ObserverEEEC2Ev(ptr noundef nonnull align 1 dereferenceable(1) %this) unnamed_addr #4 comdat align 2 {
entry:
  %this.addr = alloca ptr, align 8
  store ptr %this, ptr %this.addr, align 8, !tbaa !3
  %this1 = load ptr, ptr %this.addr, align 8
  call void @_ZNSt15__new_allocatorISt13_Rb_tree_nodeIPN8QuantLib8ObserverEEEC2Ev(ptr noundef nonnull align 1 dereferenceable(1) %this1) #13
  ret void
}

; Function Attrs: mustprogress uwtable
define linkonce_odr void @_ZN5boost6detail15sp_counted_base12add_ref_copyEv(ptr noundef nonnull align 8 dereferenceable(16) %this) #5 comdat align 2 {
entry:
  %this.addr = alloca ptr, align 8
  store ptr %this, ptr %this.addr, align 8, !tbaa !3
  %this1 = load ptr, ptr %this.addr, align 8
  %use_count_ = getelementptr inbounds nuw %"class.boost::detail::sp_counted_base", ptr %this1, i32 0, i32 1
  call void @_ZN5boost6detail16atomic_incrementEPj(ptr noundef %use_count_)
  ret void
}

; Function Attrs: mustprogress nounwind uwtable
define linkonce_odr void @_ZNSt8_Rb_treeIPN8QuantLib8ObserverES2_St9_IdentityIS2_ESt4lessIS2_ESaIS2_EE13_Rb_tree_implIS6_Lb1EEC2Ev(ptr noundef nonnull align 8 dereferenceable(48) %this) unnamed_addr #4 comdat align 2 {
entry:
  %this.addr = alloca ptr, align 8
  store ptr %this, ptr %this.addr, align 8, !tbaa !3
  %this1 = load ptr, ptr %this.addr, align 8
  call void @_ZNSaISt13_Rb_tree_nodeIPN8QuantLib8ObserverEEEC2Ev(ptr noundef nonnull align 1 dereferenceable(1) %this1) #13
  call void @_ZNSt20_Rb_tree_key_compareISt4lessIPN8QuantLib8ObserverEEEC2Ev(ptr noundef nonnull align 1 dereferenceable(1) %this1) #13
  %0 = getelementptr inbounds i8, ptr %this1, i64 8
  call void @_ZNSt15_Rb_tree_headerC2Ev(ptr noundef nonnull align 8 dereferenceable(40) %0) #13
  ret void
}

; Function Attrs: mustprogress nounwind uwtable
define linkonce_odr void @_ZN5boost6detail12shared_countC2ERKS1_(ptr noundef nonnull align 8 dereferenceable(8) %this, ptr noundef nonnull align 8 dereferenceable(8) %r) unnamed_addr #4 comdat align 2 personality ptr @__gxx_personality_v0 {
entry:
  %this.addr = alloca ptr, align 8
  %r.addr = alloca ptr, align 8
  store ptr %this, ptr %this.addr, align 8, !tbaa !3
  store ptr %r, ptr %r.addr, align 8, !tbaa !3
  %this1 = load ptr, ptr %this.addr, align 8
  %pi_ = getelementptr inbounds nuw %"class.boost::detail::shared_count", ptr %this1, i32 0, i32 0
  %0 = load ptr, ptr %r.addr, align 8, !tbaa !3
  %pi_2 = getelementptr inbounds nuw %"class.boost::detail::shared_count", ptr %0, i32 0, i32 0
  %1 = load ptr, ptr %pi_2, align 8, !tbaa !71
  store ptr %1, ptr %pi_, align 8, !tbaa !71
  %pi_3 = getelementptr inbounds nuw %"class.boost::detail::shared_count", ptr %this1, i32 0, i32 0
  %2 = load ptr, ptr %pi_3, align 8, !tbaa !71
  %cmp = icmp ne ptr %2, null
  br i1 %cmp, label %if.then, label %if.end

if.then:                                          ; preds = %entry
  %pi_4 = getelementptr inbounds nuw %"class.boost::detail::shared_count", ptr %this1, i32 0, i32 0
  %3 = load ptr, ptr %pi_4, align 8, !tbaa !71
  invoke void @_ZN5boost6detail15sp_counted_base12add_ref_copyEv(ptr noundef nonnull align 8 dereferenceable(16) %3)
          to label %invoke.cont unwind label %terminate.lpad

invoke.cont:                                      ; preds = %if.then
  br label %if.end

if.end:                                           ; preds = %invoke.cont, %entry
  ret void

terminate.lpad:                                   ; preds = %if.then
  %4 = landingpad { ptr, i32 }
          catch ptr null
  %5 = extractvalue { ptr, i32 } %4, 0
  call void @__clang_call_terminate(ptr %5) #21
  unreachable
}

; Function Attrs: mustprogress nounwind uwtable
define linkonce_odr void @_ZNSt8_Rb_treeIPN8QuantLib8ObserverES2_St9_IdentityIS2_ESt4lessIS2_ESaIS2_EEC2Ev(ptr noundef nonnull align 8 dereferenceable(48) %this) unnamed_addr #4 comdat align 2 {
entry:
  %this.addr = alloca ptr, align 8
  store ptr %this, ptr %this.addr, align 8, !tbaa !3
  %this1 = load ptr, ptr %this.addr, align 8
  %_M_impl = getelementptr inbounds nuw %"class.std::_Rb_tree.1", ptr %this1, i32 0, i32 0
  call void @_ZNSt8_Rb_treeIPN8QuantLib8ObserverES2_St9_IdentityIS2_ESt4lessIS2_ESaIS2_EE13_Rb_tree_implIS6_Lb1EEC2Ev(ptr noundef nonnull align 8 dereferenceable(48) %_M_impl) #13
  ret void
}

; Function Attrs: mustprogress nounwind uwtable
define linkonce_odr void @_ZN5boost10shared_ptrIN8QuantLib8Currency4DataEEC2ERKS4_(ptr noundef nonnull align 8 dereferenceable(16) %this, ptr noundef nonnull align 8 dereferenceable(16) %r) unnamed_addr #4 comdat align 2 {
entry:
  %this.addr = alloca ptr, align 8
  %r.addr = alloca ptr, align 8
  store ptr %this, ptr %this.addr, align 8, !tbaa !3
  store ptr %r, ptr %r.addr, align 8, !tbaa !3
  %this1 = load ptr, ptr %this.addr, align 8
  %px = getelementptr inbounds nuw %"class.boost::shared_ptr.10", ptr %this1, i32 0, i32 0
  %0 = load ptr, ptr %r.addr, align 8, !tbaa !3
  %px2 = getelementptr inbounds nuw %"class.boost::shared_ptr.10", ptr %0, i32 0, i32 0
  %1 = load ptr, ptr %px2, align 8, !tbaa !81
  store ptr %1, ptr %px, align 8, !tbaa !81
  %pn = getelementptr inbounds nuw %"class.boost::shared_ptr.10", ptr %this1, i32 0, i32 1
  %2 = load ptr, ptr %r.addr, align 8, !tbaa !3
  %pn3 = getelementptr inbounds nuw %"class.boost::shared_ptr.10", ptr %2, i32 0, i32 1
  call void @_ZN5boost6detail12shared_countC2ERKS1_(ptr noundef nonnull align 8 dereferenceable(8) %pn, ptr noundef nonnull align 8 dereferenceable(8) %pn3) #13
  ret void
}

; Function Attrs: mustprogress nounwind uwtable
define linkonce_odr void @_ZNSt3setIPN8QuantLib8ObserverESt4lessIS2_ESaIS2_EEC2Ev(ptr noundef nonnull align 8 dereferenceable(48) %this) unnamed_addr #4 comdat align 2 {
entry:
  %this.addr = alloca ptr, align 8
  store ptr %this, ptr %this.addr, align 8, !tbaa !3
  %this1 = load ptr, ptr %this.addr, align 8
  %_M_t = getelementptr inbounds nuw %"class.std::set.0", ptr %this1, i32 0, i32 0
  call void @_ZNSt8_Rb_treeIPN8QuantLib8ObserverES2_St9_IdentityIS2_ESt4lessIS2_ESaIS2_EEC2Ev(ptr noundef nonnull align 8 dereferenceable(48) %_M_t) #13
  ret void
}

; Function Attrs: mustprogress nounwind uwtable
define linkonce_odr void @_ZN8QuantLib11DefaultTypeD2Ev(ptr noundef nonnull align 8 dereferenceable(16) %this) unnamed_addr #4 comdat align 2 {
entry:
  %this.addr = alloca ptr, align 8
  store ptr %this, ptr %this.addr, align 8, !tbaa !3
  ret void
}

; Function Attrs: inlinehint mustprogress nounwind uwtable
define linkonce_odr void @_ZN8QuantLib8CurrencyC2ERKS0_(ptr noundef nonnull align 8 dereferenceable(16) %this, ptr noundef nonnull align 8 dereferenceable(16) %0) unnamed_addr #8 comdat align 2 {
entry:
  %this.addr = alloca ptr, align 8
  %.addr = alloca ptr, align 8
  store ptr %this, ptr %this.addr, align 8, !tbaa !3
  store ptr %0, ptr %.addr, align 8, !tbaa !3
  %this1 = load ptr, ptr %this.addr, align 8
  %data_ = getelementptr inbounds nuw %"class.QuantLib::Currency", ptr %this1, i32 0, i32 0
  %1 = load ptr, ptr %.addr, align 8, !tbaa !3
  %data_2 = getelementptr inbounds nuw %"class.QuantLib::Currency", ptr %1, i32 0, i32 0
  call void @_ZN5boost10shared_ptrIN8QuantLib8Currency4DataEEC2ERKS4_(ptr noundef nonnull align 8 dereferenceable(16) %data_, ptr noundef nonnull align 8 dereferenceable(16) %data_2) #13
  ret void
}

; Function Attrs: mustprogress nounwind uwtable
define linkonce_odr void @_ZN8QuantLib10ObservableC2Ev(ptr noundef nonnull align 8 dereferenceable(56) %this) unnamed_addr #4 comdat align 2 {
entry:
  %this.addr = alloca ptr, align 8
  store ptr %this, ptr %this.addr, align 8, !tbaa !3
  %this1 = load ptr, ptr %this.addr, align 8
  store ptr getelementptr inbounds inrange(-16, 16) ({ [4 x ptr] }, ptr @_ZTVN8QuantLib10ObservableE, i32 0, i32 0, i32 2), ptr %this1, align 8, !tbaa !7
  %observers_ = getelementptr inbounds nuw %"class.QuantLib::Observable", ptr %this1, i32 0, i32 1
  call void @_ZNSt3setIPN8QuantLib8ObserverESt4lessIS2_ESaIS2_EEC2Ev(ptr noundef nonnull align 8 dereferenceable(48) %observers_) #13
  ret void
}

; Function Attrs: mustprogress uwtable
define void @_ZN8QuantLib17FailureToPayEventC1ERKNS_4DateERKNS_8CurrencyENS_9SeniorityEdS3_d(ptr noundef nonnull align 8 dereferenceable(184) %this, ptr noundef nonnull align 8 dereferenceable(8) %creditEventDate, ptr noundef nonnull align 8 dereferenceable(16) %curr, i32 noundef %bondsSen, double noundef %defaultedAmount, ptr noundef nonnull align 8 dereferenceable(8) %settleDate, double noundef %recoveryRates) unnamed_addr #5 align 2 personality ptr @__gxx_personality_v0 {
entry:
  %this.addr = alloca ptr, align 8
  %creditEventDate.addr = alloca ptr, align 8
  %curr.addr = alloca ptr, align 8
  %bondsSen.addr = alloca i32, align 4
  %defaultedAmount.addr = alloca double, align 8
  %settleDate.addr = alloca ptr, align 8
  %recoveryRates.addr = alloca double, align 8
  %ref.tmp = alloca %"class.QuantLib::DefaultType", align 8
  %exn.slot = alloca ptr, align 8
  %ehselector.slot = alloca i32, align 4
  %agg.tmp = alloca %"class.QuantLib::Currency", align 8
  store ptr %this, ptr %this.addr, align 8, !tbaa !3
  store ptr %creditEventDate, ptr %creditEventDate.addr, align 8, !tbaa !3
  store ptr %curr, ptr %curr.addr, align 8, !tbaa !3
  store i32 %bondsSen, ptr %bondsSen.addr, align 4, !tbaa !12
  store double %defaultedAmount, ptr %defaultedAmount.addr, align 8, !tbaa !16
  store ptr %settleDate, ptr %settleDate.addr, align 8, !tbaa !3
  store double %recoveryRates, ptr %recoveryRates.addr, align 8, !tbaa !16
  %this1 = load ptr, ptr %this.addr, align 8
  %0 = getelementptr inbounds i8, ptr %this1, i64 184
  call void @_ZN8QuantLib10ObservableC2Ev(ptr noundef nonnull align 8 dereferenceable(56) %0) #13
  %1 = load ptr, ptr %creditEventDate.addr, align 8, !tbaa !3
  call void @llvm.lifetime.start.p0(i64 16, ptr %ref.tmp) #13
  invoke void @_ZN8QuantLib11DefaultTypeC1ENS_13AtomicDefault4TypeENS_13Restructuring4TypeE(ptr noundef nonnull align 8 dereferenceable(16) %ref.tmp, i32 noundef 2, i32 noundef 0)
          to label %invoke.cont unwind label %lpad

invoke.cont:                                      ; preds = %entry
  %2 = load ptr, ptr %curr.addr, align 8, !tbaa !3
  call void @_ZN8QuantLib8CurrencyC2ERKS0_(ptr noundef nonnull align 8 dereferenceable(16) %agg.tmp, ptr noundef nonnull align 8 dereferenceable(16) %2) #13
  %3 = load i32, ptr %bondsSen.addr, align 4, !tbaa !12
  %4 = load ptr, ptr %settleDate.addr, align 8, !tbaa !3
  %5 = load double, ptr %recoveryRates.addr, align 8, !tbaa !16
  invoke void @_ZN8QuantLib12DefaultEventC2ERKNS_4DateERKNS_11DefaultTypeENS_8CurrencyENS_9SeniorityES3_d(ptr noundef nonnull align 8 dereferenceable(176) %this1, ptr noundef getelementptr inbounds ([6 x ptr], ptr @_ZTTN8QuantLib17FailureToPayEventE, i64 0, i64 1), ptr noundef nonnull align 8 dereferenceable(8) %1, ptr noundef nonnull align 8 dereferenceable(16) %ref.tmp, ptr noundef %agg.tmp, i32 noundef %3, ptr noundef nonnull align 8 dereferenceable(8) %4, double noundef %5)
          to label %invoke.cont3 unwind label %lpad2

invoke.cont3:                                     ; preds = %invoke.cont
  call void @_ZN8QuantLib8CurrencyD2Ev(ptr noundef nonnull align 8 dereferenceable(16) %agg.tmp) #13
  call void @_ZN8QuantLib11DefaultTypeD2Ev(ptr noundef nonnull align 8 dereferenceable(16) %ref.tmp) #13
  call void @llvm.lifetime.end.p0(i64 16, ptr %ref.tmp) #13
  store ptr getelementptr inbounds inrange(-24, 64) ({ [11 x ptr], [5 x ptr] }, ptr @_ZTVN8QuantLib17FailureToPayEventE, i32 0, i32 0, i32 3), ptr %this1, align 8, !tbaa !7
  %add.ptr = getelementptr inbounds i8, ptr %this1, i64 184
  store ptr getelementptr inbounds inrange(-24, 16) ({ [11 x ptr], [5 x ptr] }, ptr @_ZTVN8QuantLib17FailureToPayEventE, i32 0, i32 1, i32 3), ptr %add.ptr, align 8, !tbaa !7
  %defaultedAmount_ = getelementptr inbounds nuw %"class.QuantLib::FailureToPayEvent", ptr %this1, i32 0, i32 1
  %6 = load double, ptr %defaultedAmount.addr, align 8, !tbaa !16
  store double %6, ptr %defaultedAmount_, align 8, !tbaa !51
  ret void

lpad:                                             ; preds = %entry
  %7 = landingpad { ptr, i32 }
          cleanup
  %8 = extractvalue { ptr, i32 } %7, 0
  store ptr %8, ptr %exn.slot, align 8
  %9 = extractvalue { ptr, i32 } %7, 1
  store i32 %9, ptr %ehselector.slot, align 4
  br label %ehcleanup

lpad2:                                            ; preds = %invoke.cont
  %10 = landingpad { ptr, i32 }
          cleanup
  %11 = extractvalue { ptr, i32 } %10, 0
  store ptr %11, ptr %exn.slot, align 8
  %12 = extractvalue { ptr, i32 } %10, 1
  store i32 %12, ptr %ehselector.slot, align 4
  call void @_ZN8QuantLib8CurrencyD2Ev(ptr noundef nonnull align 8 dereferenceable(16) %agg.tmp) #13
  call void @_ZN8QuantLib11DefaultTypeD2Ev(ptr noundef nonnull align 8 dereferenceable(16) %ref.tmp) #13
  br label %ehcleanup

ehcleanup:                                        ; preds = %lpad2, %lpad
  call void @llvm.lifetime.end.p0(i64 16, ptr %ref.tmp) #13
  %13 = getelementptr inbounds i8, ptr %this1, i64 184
  call void @_ZN8QuantLib10ObservableD2Ev(ptr noundef nonnull align 8 dereferenceable(56) %13) #13
  br label %eh.resume

eh.resume:                                        ; preds = %ehcleanup
  %exn = load ptr, ptr %exn.slot, align 8
  %sel = load i32, ptr %ehselector.slot, align 4
  %lpad.val = insertvalue { ptr, i32 } poison, ptr %exn, 0
  %lpad.val5 = insertvalue { ptr, i32 } %lpad.val, i32 %sel, 1
  resume { ptr, i32 } %lpad.val5
}